Certificate:
    Data:
        Version: 3 (0x2)
        Serial Number: 2 (0x2)
    Signature Algorithm: sha256WithRSAEncryption
        Issuer: CN=Easy-RSA CA
        Validity
            Not Before: Jan 18 17:04:13 2017 GMT
            Not After : Jan 16 17:04:13 2027 GMT
        Subject: CN=IBM2
        Subject Public Key Info:
            Public Key Algorithm: rsaEncryption
                Public-Key: (2048 bit)
                Modulus:
                    00:ce:09:60:2a:4f:45:bc:b5:95:6c:ec:56:0f:16:
                    04:98:b5:0d:37:a3:82:8a:d0:e4:32:61:14:bb:7c:
                    a6:34:bd:d2:0d:61:cc:e5:9d:f0:9b:09:70:bf:fb:
                    f8:ac:2a:79:d7:6b:56:54:e5:d3:74:f1:19:4f:54:
                    76:d4:1b:71:88:d4:7f:eb:f7:d6:dc:81:d3:77:3e:
                    13:33:bd:38:2e:ca:74:0d:5d:f1:de:45:a6:36:b3:
                    f0:ab:d0:ea:ab:1a:4b:6e:74:0f:e0:ba:41:68:68:
                    ac:97:72:b6:e2:8b:f8:89:29:8d:ce:30:0c:85:2b:
                    63:1f:d7:bd:f5:70:c9:55:d7:dc:80:ce:86:19:50:
                    19:aa:82:e0:cf:74:de:ac:73:0a:c0:39:fe:6c:c4:
                    bb:c1:f4:9f:a5:46:31:29:19:1f:e0:6f:1e:98:bb:
                    d9:39:f6:e8:70:be:a8:35:36:34:da:e2:8c:21:21:
                    3d:60:46:03:fd:93:7a:90:0e:89:e1:36:56:9f:fc:
                    65:06:d8:e9:8f:31:18:a5:13:a0:d2:73:ba:e4:95:
                    d9:b0:4a:4c:f8:98:9c:84:8c:01:54:2c:41:58:42:
                    c1:8c:e1:fb:00:dc:4c:2e:0a:cf:4c:7f:d2:57:3a:
                    c7:c8:9a:30:48:1c:17:1d:c5:e4:cb:55:65:77:b1:
                    59:79
                Exponent: 65537 (0x10001)
        X509v3 extensions:
            X509v3 Basic Constraints: 
                CA:FALSE
            X509v3 Subject Key Identifier: 
                83:41:19:DB:6F:4D:60:7F:22:66:5F:09:98:0D:E9:2F:0C:02:59:AB
            X509v3 Authority Key Identifier: 
                keyid:4A:99:F0:B3:2D:34:BC:C4:52:0B:B7:D2:BC:42:AC:EC:F1:5F:46:EB
                DirName:/CN=Easy-RSA CA
                serial:AE:82:60:77:C8:05:13:00

            X509v3 Extended Key Usage: 
                TLS Web Client Authentication
            X509v3 Key Usage: 
                Digital Signature
    Signature Algorithm: sha256WithRSAEncryption
         40:fb:75:16:c5:13:5f:74:28:b7:7c:97:df:a8:fb:d9:85:bf:
         32:d2:a3:32:6e:08:fd:35:e2:03:43:d1:cf:64:25:78:00:b7:
         d6:20:81:19:aa:59:50:c5:f1:3c:37:c2:31:d8:e7:bb:f1:8b:
         28:34:25:57:b4:08:60:f2:fc:10:e3:d1:99:5e:12:92:a2:e6:
         97:48:55:25:3a:f7:a4:fe:d4:ad:b5:b1:ad:c0:40:9b:8d:92:
         ce:67:b8:3e:49:39:9b:84:60:03:94:9d:7d:b3:7b:45:e4:b3:
         ae:fc:fa:93:6e:15:69:b8:46:fa:b3:15:77:b5:a3:d7:37:e7:
         b2:56:73:38:01:fb:15:56:a8:3e:69:0a:30:e6:9f:cd:e0:65:
         22:68:2f:d6:ff:b6:96:58:d9:18:51:29:18:ee:52:23:b9:6e:
         86:57:14:9a:c8:d1:df:4e:ea:e2:7d:56:a7:fb:59:74:ba:49:
         4e:8d:a0:5d:64:1e:eb:2e:7f:fc:4b:87:2f:47:97:85:0e:e9:
         fa:f6:09:e2:f4:49:d4:35:13:55:5a:e0:98:fb:33:15:bf:bf:
         01:2b:04:af:fd:e5:01:b3:ca:94:a4:4f:4e:c9:b4:30:1e:ea:
         5e:a0:61:e4:e0:b8:5c:a7:7b:4a:56:98:cc:2b:7e:be:4b:ad:
         ff:92:4c:8d
-----BEGIN CERTIFICATE-----
MIIDODCCAiCgAwIBAgIBAjANBgkqhkiG9w0BAQsFADAWMRQwEgYDVQQDDAtFYXN5
LVJTQSBDQTAeFw0xNzAxMTgxNzA0MTNaFw0yNzAxMTYxNzA0MTNaMA8xDTALBgNV
BAMMBElCTTIwggEiMA0GCSqGSIb3DQEBAQUAA4IBDwAwggEKAoIBAQDOCWAqT0W8
tZVs7FYPFgSYtQ03o4KK0OQyYRS7fKY0vdINYczlnfCbCXC/+/isKnnXa1ZU5dN0
8RlPVHbUG3GI1H/r99bcgdN3PhMzvTguynQNXfHeRaY2s/Cr0OqrGktudA/gukFo
aKyXcrbii/iJKY3OMAyFK2Mf1731cMlV19yAzoYZUBmqguDPdN6scwrAOf5sxLvB
9J+lRjEpGR/gbx6Yu9k59uhwvqg1NjTa4owhIT1gRgP9k3qQDonhNlaf/GUG2OmP
MRilE6DSc7rkldmwSkz4mJyEjAFULEFYQsGM4fsA3EwuCs9Mf9JXOsfImjBIHBcd
xeTLVWV3sVl5AgMBAAGjgZcwgZQwCQYDVR0TBAIwADAdBgNVHQ4EFgQUg0EZ229N
YH8iZl8JmA3pLwwCWaswRgYDVR0jBD8wPYAUSpnwsy00vMRSC7fSvEKs7PFfRuuh
GqQYMBYxFDASBgNVBAMMC0Vhc3ktUlNBIENBggkAroJgd8gFEwAwEwYDVR0lBAww
CgYIKwYBBQUHAwIwCwYDVR0PBAQDAgeAMA0GCSqGSIb3DQEBCwUAA4IBAQBA+3UW
xRNfdCi3fJffqPvZhb8y0qMybgj9NeIDQ9HPZCV4ALfWIIEZqllQxfE8N8Ix2Oe7
8YsoNCVXtAhg8vwQ49GZXhKSouaXSFUlOvek/tSttbGtwECbjZLOZ7g+STmbhGAD
lJ19s3tF5LOu/PqTbhVpuEb6sxV3taPXN+eyVnM4AfsVVqg+aQow5p/N4GUiaC/W
/7aWWNkYUSkY7lIjuW6GVxSayNHfTurifVan+1l0uklOjaBdZB7rLn/8S4cvR5eF
Dun69gni9EnUNRNVWuCY+zMVv78BKwSv/eUBs8qUpE9OybQwHupeoGHk4Lhcp3tK
VpjMK36+S63/kkyN
-----END CERTIFICATE-----
