Certificate:
    Data:
        Version: 3 (0x2)
        Serial Number: 1 (0x1)
    Signature Algorithm: sha256WithRSAEncryption
        Issuer: CN=Easy-RSA CA
        Validity
            Not Before: Jan 18 17:03:56 2017 GMT
            Not After : Jan 16 17:03:56 2027 GMT
        Subject: CN=IBM3
        Subject Public Key Info:
            Public Key Algorithm: rsaEncryption
                Public-Key: (2048 bit)
                Modulus:
                    00:e5:14:ce:04:4b:5e:92:d9:7f:f9:b5:8e:b7:38:
                    37:9e:e0:0c:60:0e:90:c0:fe:4b:8d:f9:43:fb:b1:
                    68:a9:3c:74:20:0e:53:d9:a4:02:5a:5c:d4:02:22:
                    e9:22:48:d5:f4:c2:63:24:73:64:17:b1:8b:d9:cd:
                    0e:7e:b8:3c:3b:ae:07:06:d9:3a:ae:6c:3d:9b:c9:
                    3d:33:36:af:17:34:f2:40:2d:18:e8:2e:50:dd:18:
                    eb:2f:5b:88:64:48:ed:25:f5:b5:f5:7b:51:57:1c:
                    4d:c9:d4:71:ce:eb:8c:2b:d5:5b:3f:13:82:98:97:
                    5a:da:34:34:fc:28:00:36:60:65:23:f8:35:cb:6e:
                    1f:b7:f3:44:6c:ac:8c:6b:54:1d:f9:75:c1:80:de:
                    d2:db:64:57:74:c7:2f:e0:e6:bf:78:bc:13:11:73:
                    9a:9c:b7:34:77:d4:14:4a:08:ac:ae:7c:28:e8:6f:
                    f0:5d:ca:8e:fe:e1:d3:04:70:0d:c9:87:29:f7:f3:
                    e1:17:0e:23:dc:f2:ca:00:85:47:b9:29:46:28:85:
                    d0:13:3f:e9:73:c5:b2:f8:97:e8:e6:29:22:68:36:
                    60:19:e2:43:1b:19:c8:f6:2a:c9:d4:37:42:2e:84:
                    f0:f7:14:93:d7:d4:77:fb:28:99:05:97:eb:ba:fe:
                    2f:ef
                Exponent: 65537 (0x10001)
        X509v3 extensions:
            X509v3 Basic Constraints: 
                CA:FALSE
            X509v3 Subject Key Identifier: 
                16:0E:42:8C:47:2A:7B:91:F5:7F:F3:F2:83:20:D3:98:20:89:1F:CD
            X509v3 Authority Key Identifier: 
                keyid:4A:99:F0:B3:2D:34:BC:C4:52:0B:B7:D2:BC:42:AC:EC:F1:5F:46:EB
                DirName:/CN=Easy-RSA CA
                serial:AE:82:60:77:C8:05:13:00

            X509v3 Extended Key Usage: 
                TLS Web Server Authentication
            X509v3 Key Usage: 
                Digital Signature, Key Encipherment
    Signature Algorithm: sha256WithRSAEncryption
         41:b0:ff:34:15:34:b2:35:5b:ac:77:d6:5c:46:4b:1f:48:7c:
         e7:31:c2:be:d8:4d:0c:e0:9e:bc:81:46:83:5f:30:2a:68:e1:
         1f:0c:7d:ab:c7:9c:ff:ef:29:68:97:54:b4:65:ae:cf:01:21:
         98:04:77:39:77:63:49:cf:ad:c9:36:0d:34:4c:37:02:a5:1e:
         b6:d4:49:07:e0:a2:8b:89:eb:bd:18:dc:13:be:a3:72:ae:7a:
         76:7e:24:4c:85:1e:59:07:1a:79:26:a4:41:ee:eb:d5:74:fe:
         a8:35:f1:f5:3b:12:9b:26:15:e6:25:6f:b1:f4:ed:f0:28:b4:
         75:94:7e:7c:fb:e2:7b:37:c6:a7:f2:b4:d2:14:5c:4b:e4:85:
         5c:ae:52:e7:6d:1b:57:98:d5:16:fd:18:af:17:8a:91:29:eb:
         5f:68:3c:4a:42:97:8b:48:c8:a7:9f:12:50:0d:57:f2:be:66:
         1d:d5:8f:c6:4a:92:e9:3c:17:6b:58:23:10:3c:cc:be:11:bf:
         20:b3:d3:c4:fe:d8:e2:51:fd:2f:37:3b:d8:a3:af:a8:4a:6b:
         80:db:65:90:8c:27:90:b8:b9:e0:20:1d:f8:a0:ba:81:83:c8:
         ef:ae:94:f9:e1:60:37:f6:3b:01:bd:31:5c:53:ab:33:7f:71:
         8c:6e:2c:ac
-----BEGIN CERTIFICATE-----
MIIDODCCAiCgAwIBAgIBATANBgkqhkiG9w0BAQsFADAWMRQwEgYDVQQDDAtFYXN5
LVJTQSBDQTAeFw0xNzAxMTgxNzAzNTZaFw0yNzAxMTYxNzAzNTZaMA8xDTALBgNV
BAMMBElCTTMwggEiMA0GCSqGSIb3DQEBAQUAA4IBDwAwggEKAoIBAQDlFM4ES16S
2X/5tY63ODee4AxgDpDA/kuN+UP7sWipPHQgDlPZpAJaXNQCIukiSNX0wmMkc2QX
sYvZzQ5+uDw7rgcG2TqubD2byT0zNq8XNPJALRjoLlDdGOsvW4hkSO0l9bX1e1FX
HE3J1HHO64wr1Vs/E4KYl1raNDT8KAA2YGUj+DXLbh+380RsrIxrVB35dcGA3tLb
ZFd0xy/g5r94vBMRc5qctzR31BRKCKyufCjob/Bdyo7+4dMEcA3Jhyn38+EXDiPc
8soAhUe5KUYohdATP+lzxbL4l+jmKSJoNmAZ4kMbGcj2KsnUN0IuhPD3FJPX1Hf7
KJkFl+u6/i/vAgMBAAGjgZcwgZQwCQYDVR0TBAIwADAdBgNVHQ4EFgQUFg5CjEcq
e5H1f/PygyDTmCCJH80wRgYDVR0jBD8wPYAUSpnwsy00vMRSC7fSvEKs7PFfRuuh
GqQYMBYxFDASBgNVBAMMC0Vhc3ktUlNBIENBggkAroJgd8gFEwAwEwYDVR0lBAww
CgYIKwYBBQUHAwEwCwYDVR0PBAQDAgWgMA0GCSqGSIb3DQEBCwUAA4IBAQBBsP80
FTSyNVusd9ZcRksfSHznMcK+2E0M4J68gUaDXzAqaOEfDH2rx5z/7ylol1S0Za7P
ASGYBHc5d2NJz63JNg00TDcCpR621EkH4KKLieu9GNwTvqNyrnp2fiRMhR5ZBxp5
JqRB7uvVdP6oNfH1OxKbJhXmJW+x9O3wKLR1lH58++J7N8an8rTSFFxL5IVcrlLn
bRtXmNUW/RivF4qRKetfaDxKQpeLSMinnxJQDVfyvmYd1Y/GSpLpPBdrWCMQPMy+
Eb8gs9PE/tjiUf0vNzvYo6+oSmuA22WQjCeQuLngIB34oLqBg8jvrpT54WA39jsB
vTFcU6szf3GMbiys
-----END CERTIFICATE-----
