Certificate:
    Data:
        Version: 3 (0x2)
        Serial Number: 3 (0x3)
    Signature Algorithm: sha256WithRSAEncryption
        Issuer: CN=Easy-RSA CA
        Validity
            Not Before: Jan 18 17:04:26 2017 GMT
            Not After : Jan 16 17:04:26 2027 GMT
        Subject: CN=APU
        Subject Public Key Info:
            Public Key Algorithm: rsaEncryption
                Public-Key: (2048 bit)
                Modulus:
                    00:d7:27:cb:67:67:61:21:0e:ad:92:06:90:ef:f5:
                    d1:cc:16:f1:3f:a7:11:4d:49:df:a6:44:fa:1b:f8:
                    2c:ec:57:f9:88:70:0a:9d:5b:99:a9:73:7d:82:f6:
                    8b:69:09:47:36:a3:00:74:1c:c6:c6:f9:cc:a7:68:
                    3c:2b:e2:49:7c:79:10:c4:9c:73:ca:fe:91:d0:19:
                    ef:85:d0:97:84:68:f5:ef:13:75:aa:16:cf:8e:fa:
                    e0:03:ac:76:f6:db:e6:df:c5:c8:8a:91:4d:e1:50:
                    c0:94:c9:f2:2a:f8:56:38:7d:13:64:71:c9:88:f8:
                    2d:e5:4d:ff:24:39:23:55:87:dd:07:1e:67:b7:ec:
                    22:cb:e5:89:b5:b2:a9:c2:9d:fa:cb:40:9f:90:e7:
                    f7:5d:d7:a2:87:02:c3:4d:85:4d:e3:af:e2:5a:d8:
                    1f:16:12:06:dd:f5:05:a7:12:c6:02:80:b4:00:32:
                    a1:9e:99:ec:c7:16:74:90:f4:eb:c1:eb:64:38:7e:
                    4f:84:d0:40:bd:66:98:72:46:4e:aa:0b:dd:d2:4f:
                    84:08:fb:92:59:5a:0c:c4:cb:1d:74:12:94:ce:23:
                    42:09:a2:16:48:bc:a0:8a:73:55:60:ed:bb:c4:54:
                    cd:e2:03:94:84:9e:58:27:56:2b:5a:53:ab:fa:91:
                    fb:ab
                Exponent: 65537 (0x10001)
        X509v3 extensions:
            X509v3 Basic Constraints: 
                CA:FALSE
            X509v3 Subject Key Identifier: 
                34:23:03:3B:9E:B4:14:A2:2F:F4:A7:6C:67:5D:AA:0F:6F:A0:E9:60
            X509v3 Authority Key Identifier: 
                keyid:4A:99:F0:B3:2D:34:BC:C4:52:0B:B7:D2:BC:42:AC:EC:F1:5F:46:EB
                DirName:/CN=Easy-RSA CA
                serial:AE:82:60:77:C8:05:13:00

            X509v3 Extended Key Usage: 
                TLS Web Client Authentication
            X509v3 Key Usage: 
                Digital Signature
    Signature Algorithm: sha256WithRSAEncryption
         d3:3d:b2:91:31:e2:ff:81:07:96:35:5a:51:8f:c4:05:d2:29:
         d4:9c:4c:e2:32:ad:36:d4:b4:c7:80:07:7c:a0:17:b1:7f:13:
         fd:56:9b:ea:d5:61:d5:10:fe:ec:d3:67:c0:be:8e:a4:b6:6d:
         68:2a:fe:46:99:38:6e:97:b2:44:06:52:92:52:31:d4:b0:71:
         38:37:6d:ad:db:93:73:d1:ff:9d:30:d6:ec:ad:81:54:80:2d:
         7f:f7:3e:dc:73:7c:8e:86:76:8c:45:cd:01:0c:b1:13:7b:bc:
         3f:e3:d2:10:6e:0b:b3:73:e5:2c:99:77:c5:7f:a8:46:e3:9a:
         14:78:aa:fe:60:94:99:4a:3a:ff:95:d3:00:6d:84:f1:cf:54:
         84:77:1a:11:0d:ee:ce:bb:03:2b:67:79:f9:44:97:54:19:51:
         9a:14:63:fa:54:4e:37:96:71:fb:82:4b:3f:89:d7:42:f4:91:
         40:e5:37:e3:66:30:76:ee:9c:5c:9d:2f:47:be:ed:51:0d:d4:
         58:f0:d0:6f:1c:8b:2a:3a:03:8a:83:ca:07:08:84:c5:91:20:
         0c:f6:80:80:ff:3d:07:c2:29:dd:f8:8d:f2:5c:d7:69:8b:f8:
         9b:89:5b:40:da:85:42:62:3a:ba:11:e4:ee:e5:8a:b9:84:85:
         03:ac:4a:f7
-----BEGIN CERTIFICATE-----
MIIDNzCCAh+gAwIBAgIBAzANBgkqhkiG9w0BAQsFADAWMRQwEgYDVQQDDAtFYXN5
LVJTQSBDQTAeFw0xNzAxMTgxNzA0MjZaFw0yNzAxMTYxNzA0MjZaMA4xDDAKBgNV
BAMMA0FQVTCCASIwDQYJKoZIhvcNAQEBBQADggEPADCCAQoCggEBANcny2dnYSEO
rZIGkO/10cwW8T+nEU1J36ZE+hv4LOxX+YhwCp1bmalzfYL2i2kJRzajAHQcxsb5
zKdoPCviSXx5EMScc8r+kdAZ74XQl4Ro9e8TdaoWz4764AOsdvbb5t/FyIqRTeFQ
wJTJ8ir4Vjh9E2RxyYj4LeVN/yQ5I1WH3QceZ7fsIsvlibWyqcKd+stAn5Dn913X
oocCw02FTeOv4lrYHxYSBt31BacSxgKAtAAyoZ6Z7McWdJD068HrZDh+T4TQQL1m
mHJGTqoL3dJPhAj7kllaDMTLHXQSlM4jQgmiFki8oIpzVWDtu8RUzeIDlISeWCdW
K1pTq/qR+6sCAwEAAaOBlzCBlDAJBgNVHRMEAjAAMB0GA1UdDgQWBBQ0IwM7nrQU
oi/0p2xnXaoPb6DpYDBGBgNVHSMEPzA9gBRKmfCzLTS8xFILt9K8Qqzs8V9G66Ea
pBgwFjEUMBIGA1UEAwwLRWFzeS1SU0EgQ0GCCQCugmB3yAUTADATBgNVHSUEDDAK
BggrBgEFBQcDAjALBgNVHQ8EBAMCB4AwDQYJKoZIhvcNAQELBQADggEBANM9spEx
4v+BB5Y1WlGPxAXSKdScTOIyrTbUtMeAB3ygF7F/E/1Wm+rVYdUQ/uzTZ8C+jqS2
bWgq/kaZOG6XskQGUpJSMdSwcTg3ba3bk3PR/50w1uytgVSALX/3PtxzfI6GdoxF
zQEMsRN7vD/j0hBuC7Nz5SyZd8V/qEbjmhR4qv5glJlKOv+V0wBthPHPVIR3GhEN
7s67AytneflEl1QZUZoUY/pUTjeWcfuCSz+J10L0kUDlN+NmMHbunFydL0e+7VEN
1Fjw0G8ciyo6A4qDygcIhMWRIAz2gID/PQfCKd34jfJc12mL+JuJW0DahUJiOroR
5O7lirmEhQOsSvc=
-----END CERTIFICATE-----
