Certificate:
    Data:
        Version: 3 (0x2)
        Serial Number: 5 (0x5)
    Signature Algorithm: sha256WithRSAEncryption
        Issuer: CN=Easy-RSA CA
        Validity
            Not Before: Jan 18 17:04:34 2017 GMT
            Not After : Jan 16 17:04:34 2027 GMT
        Subject: CN=netgate
        Subject Public Key Info:
            Public Key Algorithm: rsaEncryption
                Public-Key: (2048 bit)
                Modulus:
                    00:b8:8f:dc:b2:81:d5:77:71:b6:ac:d8:19:7d:fb:
                    fa:d6:69:20:4e:04:bb:a1:c2:ba:85:79:a7:80:04:
                    be:c9:89:53:f1:32:72:32:81:32:f6:c0:7d:2e:0d:
                    eb:fc:0b:7f:db:35:c9:2b:23:e4:0a:55:aa:ce:13:
                    9c:09:a9:e7:86:11:d5:f0:bc:4e:2d:61:ce:c0:fc:
                    33:4d:37:58:22:41:83:9c:86:55:20:ee:3b:99:8a:
                    f6:2d:54:4a:66:5a:2d:18:45:e5:31:b1:dc:45:50:
                    d8:fd:d8:90:68:16:d6:e8:d1:86:d7:b9:b1:43:ae:
                    36:21:38:b8:b1:cb:da:69:d7:b0:44:3a:2e:1c:f3:
                    1c:3a:64:43:8b:56:a5:fe:f8:d8:58:41:9d:9a:56:
                    77:db:51:af:2d:02:0c:88:e2:14:83:65:fd:b3:7c:
                    7c:a5:75:a1:43:60:bd:b8:9b:b9:dd:df:89:a7:f5:
                    2b:66:91:97:1d:4d:0d:b8:bb:9f:7b:f1:2e:04:96:
                    ae:dd:a9:ff:18:18:71:be:c0:68:c4:63:ba:84:dc:
                    eb:42:3e:00:56:e2:6a:6e:3f:7b:03:c2:e6:e4:c1:
                    1b:e5:2e:51:b3:48:ed:ac:06:a5:93:f2:b0:9e:46:
                    ce:64:a0:05:fe:6d:32:c2:e6:1d:1f:c9:e0:de:c7:
                    d3:f7
                Exponent: 65537 (0x10001)
        X509v3 extensions:
            X509v3 Basic Constraints: 
                CA:FALSE
            X509v3 Subject Key Identifier: 
                A6:11:F1:B2:EB:28:C2:13:9A:2B:1E:28:62:C3:DC:35:0A:C3:D4:76
            X509v3 Authority Key Identifier: 
                keyid:4A:99:F0:B3:2D:34:BC:C4:52:0B:B7:D2:BC:42:AC:EC:F1:5F:46:EB
                DirName:/CN=Easy-RSA CA
                serial:AE:82:60:77:C8:05:13:00

            X509v3 Extended Key Usage: 
                TLS Web Client Authentication
            X509v3 Key Usage: 
                Digital Signature
    Signature Algorithm: sha256WithRSAEncryption
         b1:71:a4:e6:2b:1e:a7:5f:64:61:6b:b8:b4:46:ed:9b:3a:3f:
         f9:b5:08:03:48:52:32:d4:29:c6:17:4c:c8:fa:61:8f:56:b0:
         6c:fe:e8:df:2d:e9:be:59:09:74:ba:c1:43:e4:ab:23:19:21:
         9e:bc:0d:61:a6:30:3f:42:cf:93:0b:f8:b0:f4:11:98:b7:89:
         e4:96:0a:d1:c7:f0:6a:bd:ce:a0:7d:be:df:ce:5b:70:dc:0f:
         f5:5c:0a:73:d5:4f:f5:d0:20:27:72:9b:8c:94:a4:83:60:97:
         f1:27:0a:70:2b:cf:75:31:a1:e0:7c:fa:6d:94:b5:ac:b6:d4:
         cb:51:8b:83:47:87:4b:89:ae:27:fe:d9:3e:5b:83:4b:15:f5:
         b4:73:9c:51:45:f5:8a:3d:cf:62:42:1e:92:f8:1b:46:79:61:
         48:be:ac:27:cd:65:a4:a9:ad:b0:dd:98:d6:f0:de:8f:0e:ea:
         be:0b:e5:ca:75:3c:f2:06:53:10:e0:cb:eb:9c:29:e1:e7:df:
         73:0a:f9:e7:aa:be:b9:92:06:e3:12:80:d9:f6:6f:a2:3d:9e:
         44:aa:04:2b:ce:74:32:01:6e:72:e1:29:7a:47:9a:9e:8b:9a:
         5c:ae:66:3a:29:0f:a7:7a:c8:2c:75:89:1f:80:3d:bf:13:18:
         6d:16:7b:f6
-----BEGIN CERTIFICATE-----
MIIDOzCCAiOgAwIBAgIBBTANBgkqhkiG9w0BAQsFADAWMRQwEgYDVQQDDAtFYXN5
LVJTQSBDQTAeFw0xNzAxMTgxNzA0MzRaFw0yNzAxMTYxNzA0MzRaMBIxEDAOBgNV
BAMMB25ldGdhdGUwggEiMA0GCSqGSIb3DQEBAQUAA4IBDwAwggEKAoIBAQC4j9yy
gdV3cbas2Bl9+/rWaSBOBLuhwrqFeaeABL7JiVPxMnIygTL2wH0uDev8C3/bNckr
I+QKVarOE5wJqeeGEdXwvE4tYc7A/DNNN1giQYOchlUg7juZivYtVEpmWi0YReUx
sdxFUNj92JBoFtbo0YbXubFDrjYhOLixy9pp17BEOi4c8xw6ZEOLVqX++NhYQZ2a
VnfbUa8tAgyI4hSDZf2zfHyldaFDYL24m7nd34mn9StmkZcdTQ24u5978S4Elq7d
qf8YGHG+wGjEY7qE3OtCPgBW4mpuP3sDwubkwRvlLlGzSO2sBqWT8rCeRs5koAX+
bTLC5h0fyeDex9P3AgMBAAGjgZcwgZQwCQYDVR0TBAIwADAdBgNVHQ4EFgQUphHx
susowhOaKx4oYsPcNQrD1HYwRgYDVR0jBD8wPYAUSpnwsy00vMRSC7fSvEKs7PFf
RuuhGqQYMBYxFDASBgNVBAMMC0Vhc3ktUlNBIENBggkAroJgd8gFEwAwEwYDVR0l
BAwwCgYIKwYBBQUHAwIwCwYDVR0PBAQDAgeAMA0GCSqGSIb3DQEBCwUAA4IBAQCx
caTmKx6nX2Rha7i0Ru2bOj/5tQgDSFIy1CnGF0zI+mGPVrBs/ujfLem+WQl0usFD
5KsjGSGevA1hpjA/Qs+TC/iw9BGYt4nklgrRx/Bqvc6gfb7fzltw3A/1XApz1U/1
0CAncpuMlKSDYJfxJwpwK891MaHgfPptlLWsttTLUYuDR4dLia4n/tk+W4NLFfW0
c5xRRfWKPc9iQh6S+BtGeWFIvqwnzWWkqa2w3ZjW8N6PDuq+C+XKdTzyBlMQ4Mvr
nCnh599zCvnnqr65kgbjEoDZ9m+iPZ5EqgQrznQyAW5y4Sl6R5qei5pcrmY6KQ+n
esgsdYkfgD2/ExhtFnv2
-----END CERTIFICATE-----
