Certificate:
    Data:
        Version: 3 (0x2)
        Serial Number: 4 (0x4)
    Signature Algorithm: sha256WithRSAEncryption
        Issuer: CN=Easy-RSA CA
        Validity
            Not Before: Jan 18 17:04:29 2017 GMT
            Not After : Jan 16 17:04:29 2027 GMT
        Subject: CN=APU2
        Subject Public Key Info:
            Public Key Algorithm: rsaEncryption
                Public-Key: (2048 bit)
                Modulus:
                    00:ad:4a:a9:bd:0e:16:1c:e8:03:2d:6c:91:cb:64:
                    1b:4d:b0:0a:9f:19:8e:0d:71:da:1c:9b:a5:2e:fb:
                    fc:3c:08:e3:c4:d0:c3:cb:22:dc:5c:be:d1:4e:1a:
                    2e:72:72:08:71:99:42:e7:b6:be:57:bd:40:59:39:
                    65:be:a0:e2:e3:41:93:bf:b1:2a:0f:89:1c:b4:78:
                    33:7a:8b:95:28:9b:e3:a8:8f:c1:05:e0:9d:19:27:
                    6e:e9:9e:2d:cc:9a:2f:e3:ec:bd:4e:65:37:1d:b3:
                    d0:61:7d:12:77:b0:ca:25:18:7a:7a:77:8d:b0:b1:
                    48:dd:2b:47:7d:cd:8a:f4:6e:55:fe:90:c0:1f:99:
                    85:01:5c:cb:49:a3:1b:4f:6f:93:e4:81:20:44:67:
                    0a:9b:6a:f9:cf:46:43:c3:83:09:d9:59:d1:b9:20:
                    a9:be:f2:96:81:ad:24:cf:4c:16:5f:1a:2f:b4:d7:
                    57:a9:6a:8c:f8:a0:00:ac:35:d5:20:2d:3a:9e:83:
                    64:6c:cc:95:ad:f5:ae:dc:4b:fa:75:99:03:ef:4a:
                    b4:74:8e:ad:b9:69:56:75:85:6a:04:e5:79:22:96:
                    a2:77:75:aa:00:6d:90:70:41:e4:41:11:af:23:1e:
                    67:ce:e6:9c:c8:f0:63:84:1e:8b:71:ca:e1:17:a8:
                    67:cd
                Exponent: 65537 (0x10001)
        X509v3 extensions:
            X509v3 Basic Constraints: 
                CA:FALSE
            X509v3 Subject Key Identifier: 
                57:10:99:BD:45:AB:E0:12:DE:AD:A4:EC:09:CC:C8:71:36:55:60:63
            X509v3 Authority Key Identifier: 
                keyid:4A:99:F0:B3:2D:34:BC:C4:52:0B:B7:D2:BC:42:AC:EC:F1:5F:46:EB
                DirName:/CN=Easy-RSA CA
                serial:AE:82:60:77:C8:05:13:00

            X509v3 Extended Key Usage: 
                TLS Web Client Authentication
            X509v3 Key Usage: 
                Digital Signature
    Signature Algorithm: sha256WithRSAEncryption
         4d:f2:16:67:ff:1b:aa:08:44:e2:aa:da:38:6a:14:55:49:e1:
         9e:b8:43:dc:44:55:81:1c:ff:19:76:80:61:54:8a:f8:3b:5f:
         2f:51:4f:92:a3:b8:82:76:56:b1:8c:6b:ad:f9:d6:28:99:a3:
         07:dd:99:d6:f3:9a:c3:5d:39:e9:10:64:bf:53:23:c0:6e:69:
         ab:7a:a8:49:59:ae:c4:7f:12:70:42:bc:a9:03:b6:76:66:48:
         cd:36:79:45:28:9a:ce:d1:f7:6e:9a:82:e6:b4:cf:c4:a3:b7:
         fb:8b:13:cc:9e:af:0d:a5:57:d4:46:40:dd:e8:52:2d:b7:cc:
         8c:45:30:ad:d5:5a:cf:5b:f2:f8:2b:fc:7f:2e:69:54:53:fa:
         e5:fd:f3:9e:13:f8:3f:20:a2:3a:fb:7b:f2:81:ea:8a:d5:47:
         73:a7:9c:7c:54:1f:a1:3f:0e:e2:29:24:9a:e9:ad:bf:4c:06:
         83:be:81:27:23:8e:3e:99:89:0b:d7:2f:f3:b9:9e:d7:03:db:
         6f:bd:27:c4:b6:3f:17:ca:05:1f:be:c6:4e:17:85:0f:51:c5:
         ed:72:66:94:d8:14:7b:f3:d0:1a:a9:cb:82:81:d9:86:d9:9d:
         62:91:3b:b8:01:87:5c:85:89:b5:ef:c6:ce:6c:1a:02:d5:27:
         63:2a:8b:b4
-----BEGIN CERTIFICATE-----
MIIDODCCAiCgAwIBAgIBBDANBgkqhkiG9w0BAQsFADAWMRQwEgYDVQQDDAtFYXN5
LVJTQSBDQTAeFw0xNzAxMTgxNzA0MjlaFw0yNzAxMTYxNzA0MjlaMA8xDTALBgNV
BAMMBEFQVTIwggEiMA0GCSqGSIb3DQEBAQUAA4IBDwAwggEKAoIBAQCtSqm9DhYc
6AMtbJHLZBtNsAqfGY4Ncdocm6Uu+/w8COPE0MPLItxcvtFOGi5ycghxmULntr5X
vUBZOWW+oOLjQZO/sSoPiRy0eDN6i5Uom+Ooj8EF4J0ZJ27pni3Mmi/j7L1OZTcd
s9BhfRJ3sMolGHp6d42wsUjdK0d9zYr0blX+kMAfmYUBXMtJoxtPb5PkgSBEZwqb
avnPRkPDgwnZWdG5IKm+8paBrSTPTBZfGi+011epaoz4oACsNdUgLTqeg2RszJWt
9a7cS/p1mQPvSrR0jq25aVZ1hWoE5XkilqJ3daoAbZBwQeRBEa8jHmfO5pzI8GOE
HotxyuEXqGfNAgMBAAGjgZcwgZQwCQYDVR0TBAIwADAdBgNVHQ4EFgQUVxCZvUWr
4BLeraTsCczIcTZVYGMwRgYDVR0jBD8wPYAUSpnwsy00vMRSC7fSvEKs7PFfRuuh
GqQYMBYxFDASBgNVBAMMC0Vhc3ktUlNBIENBggkAroJgd8gFEwAwEwYDVR0lBAww
CgYIKwYBBQUHAwIwCwYDVR0PBAQDAgeAMA0GCSqGSIb3DQEBCwUAA4IBAQBN8hZn
/xuqCETiqto4ahRVSeGeuEPcRFWBHP8ZdoBhVIr4O18vUU+So7iCdlaxjGut+dYo
maMH3ZnW85rDXTnpEGS/UyPAbmmreqhJWa7EfxJwQrypA7Z2ZkjNNnlFKJrO0fdu
moLmtM/Eo7f7ixPMnq8NpVfURkDd6FItt8yMRTCt1VrPW/L4K/x/LmlUU/rl/fOe
E/g/IKI6+3vygeqK1Udzp5x8VB+hPw7iKSSa6a2/TAaDvoEnI44+mYkL1y/zuZ7X
A9tvvSfEtj8XygUfvsZOF4UPUcXtcmaU2BR789AaqcuCgdmG2Z1ikTu4AYdchYm1
78bObBoC1SdjKou0
-----END CERTIFICATE-----
